ccollections
defaultdict
p0
(cdill.dill
_load_type
p1
(S'ListType'
p2
tp3
Rp4
tp5
Rp6
S'muhammadquliqutbshah.dat'
p7
(lp8
(lp9
(I0
cnumpy.core.multiarray
scalar
p10
(cnumpy
dtype
p11
(S'f8'
p12
I0
I1
tp13
Rp14
(I3
S'<'
p15
NNNI-1
I-1
I0
tp16
bS'\xd5?\\zH\xd1\xeb?'
p17
tp18
Rp19
tp20
a(I4
g10
(g14
S'\xf0\xa8\xdeU\x06\xa4\xbf?'
p21
tp22
Rp23
tp24
aasS'abdullaqutbshah.dat'
p25
(lp26
(lp27
(I0
g10
(g14
S'\xf95\xbd@he\xe4?'
p28
tp29
Rp30
tp31
a(I3
g10
(g14
S'}L\xf9\x08N\x08\xc3?'
p32
tp33
Rp34
tp35
a(I4
g10
(g14
S'\xa8\x1d\xa9\x1d\xfc\x1b\xcb?'
p36
tp37
Rp38
tp39
aasS'DiamondTrade_short.dat'
p40
(lp41
(lp42
(I0
g10
(g14
S'9\x1cc\xc4Y\x8e\xef?'
p43
tp44
Rp45
tp46
aasS'Military_short.dat'
p47
(lp48
(lp49
(I0
g10
(g14
S'\xcdw\xe1\x08\x8a1\xef?'
p50
tp51
Rp52
tp53
aasS'InternationalTrade.dat'
p54
(lp55
(lp56
(I0
g10
(g14
S'\x95M\x1f\x8d\xdf\x01\xef?'
p57
tp58
Rp59
tp60
aasS'CulturalInfluence_short.dat'
p61
(lp62
(lp63
(I0
g10
(g14
S'\xb1"N\xaa\xc1b\xef?'
p64
tp65
Rp66
tp67
aasS'constructions_short.dat'
p68
(lp69
(lp70
(I0
g10
(g14
S'\xae\xdf\xc3\x99\\\xa5\xef?'
p71
tp72
Rp73
tp74
aasS'sultanibrahimqutbshah.dat'
p75
(lp76
(lp77
(I0
g10
(g14
S'\xd2l,\xf9\xf1\x95\xe9?'
p78
tp79
Rp80
tp81
a(I3
g10
(g14
S'#_\\\x1f\xbc)\xaf?'
p82
tp83
Rp84
tp85
a(I4
g10
(g14
S'\x0cAp??\x9d\xc1?'
p86
tp87
Rp88
tp89
aasS'constructions.dat'
p90
(lp91
(lp92
(I0
g10
(g14
S'\xc3\xbd;l\x81\xe0\xe7?'
p93
tp94
Rp95
tp96
a(I4
g10
(g14
S'\xb5\xc4$\xcd:\xd9\xcf?'
p97
tp98
Rp99
tp100
aasS'Military.dat'
p101
(lp102
(lp103
(I0
g10
(g14
S'\xe5\xdai\xfe\xf9Q\xec?'
p104
tp105
Rp106
tp107
a(I4
g10
(g14
S'M*\x13\x97}%\xbc?'
p108
tp109
Rp110
tp111
aasS'subhanquliqutbshah.dat'
p112
(lp113
(lp114
(I0
g10
(g14
S'WC\xbaz\x18\xa0\xef?'
p115
tp116
Rp117
tp118
aasS'abulhasan.dat'
p119
(lp120
(lp121
(I0
g10
(g14
S'1\xd6t8\xbb\xa0\xe5?'
p122
tp123
Rp124
tp125
a(I3
g10
(g14
S'=\xd3\x9e\xfdej\xc4?'
p126
tp127
Rp128
tp129
a(I4
g10
(g14
S'\t\xb7\x16\xbd\xb1\xd1\xc4?'
p130
tp131
Rp132
tp133
aasS'jamshedqutbshah.dat'
p134
(lp135
(lp136
(I0
g10
(g14
S'\xffQ\xe0tVL\xee?'
p137
tp138
Rp139
tp140
a(I4
g10
(g14
S'\x85\xfcK\x91\xfbB\xa8?'
p141
tp142
Rp143
tp144
aasS'sultanquliqutbshah.dat'
p145
(lp146
(lp147
(I0
g10
(g14
S'\x07\x99\xd8mv\xeb\xea?'
p148
tp149
Rp150
tp151
a(I4
g10
(g14
S'\xbb\x0e-\xc6>\xdf\xc3?'
p152
tp153
Rp154
tp155
aasS'muhammadqutbshah.dat'
p156
(lp157
(lp158
(I0
g10
(g14
S'\x8b\xb7G\xb0\x19\xbe\xef?'
p159
tp160
Rp161
tp162
aasS'CulturalInfluence.dat'
p163
(lp164
(lp165
(I0
g10
(g14
S'\x04\xb4\x06\xcb\x01\xbe\xef?'
p166
tp167
Rp168
tp169
aasS'InternationalTrade_short.dat'
p170
(lp171
(lp172
(I0
g10
(g14
S'\xe5\x88p\x12\xe5\x01\xef?'
p173
tp174
Rp175
tp176
aasS'DiamondTrade.dat'
p177
(lp178
(lp179
(I0
g10
(g14
S'>qW\x80\xee\x83\xe8?'
p180
tp181
Rp182
tp183
a(I4
g10
(g14
S'\x91\x86\xd0j\x1bX\xcd?'
p184
tp185
Rp186
tp187
aas.