ccollections
defaultdict
p0
(cdill.dill
_load_type
p1
(S'ListType'
p2
tp3
Rp4
tp5
Rp6
S'muhammadquliqutbshah.dat'
p7
(lp8
(lp9
(I0
cnumpy.core.multiarray
scalar
p10
(cnumpy
dtype
p11
(S'f8'
p12
I0
I1
tp13
Rp14
(I3
S'<'
p15
NNNI-1
I-1
I0
tp16
bS'\xdc\x95wl\x07\x7f\xc4?'
p17
tp18
Rp19
tp20
a(I1
g10
(g14
S'\xeb\xc3m\x01\x82\xc0\xea?'
p21
tp22
Rp23
tp24
aasS'abdullaqutbshah.dat'
p25
(lp26
(lp27
(I0
g10
(g14
S'\x03\x0b\n\xb7\xb4#\xd0?'
p28
tp29
Rp30
tp31
a(I1
g10
(g14
S'\xa6\x97?,B\xf1\xe4?'
p32
tp33
Rp34
tp35
a(I2
g10
(g14
S'u\xe7\xd2\x8c\xa4[\xb7?'
p36
tp37
Rp38
tp39
aasS'DiamondTrade_short.dat'
p40
(lp41
(lp42
(I1
g10
(g14
S'\xee\xfb\xa9Z\x93\x8e\xef?'
p43
tp44
Rp45
tp46
aasS'Military_short.dat'
p47
(lp48
(lp49
(I1
g10
(g14
S'\xad\xbd\xe0\xab\xf61\xef?'
p50
tp51
Rp52
tp53
aasS'InternationalTrade.dat'
p54
(lp55
(lp56
(I1
g10
(g14
S'l\xcf7\x0f\x89\x02\xef?'
p57
tp58
Rp59
tp60
aasS'CulturalInfluence_short.dat'
p61
(lp62
(lp63
(I1
g10
(g14
S'\x97\x94\x90\x8d#c\xef?'
p64
tp65
Rp66
tp67
aasS'constructions_short.dat'
p68
(lp69
(lp70
(I1
g10
(g14
S'\xe7\x94\x10!\xab\xa5\xef?'
p71
tp72
Rp73
tp74
aasS'sultanibrahimqutbshah.dat'
p75
(lp76
(lp77
(I0
g10
(g14
S'\xe5\x15\x01V\x0c\xd9\xd0?'
p78
tp79
Rp80
tp81
a(I1
g10
(g14
S'\xdd\x8a\xa5F3{\xe7?'
p82
tp83
Rp84
tp85
aasS'constructions.dat'
p86
(lp87
(lp88
(I1
g10
(g14
S'9p#\xaf{\xc9\xef?'
p89
tp90
Rp91
tp92
aasS'Military.dat'
p93
(lp94
(lp95
(I0
g10
(g14
S'\x8a\xe7b\x06\x87t\xa0?'
p96
tp97
Rp98
tp99
a(I1
g10
(g14
S'@\xceln\x87\xcf\xee?'
p100
tp101
Rp102
tp103
aasS'subhanquliqutbshah.dat'
p104
(lp105
(lp106
(I1
g10
(g14
S':\xaf\x1a\xfd\x83\xa0\xef?'
p107
tp108
Rp109
tp110
aasS'abulhasan.dat'
p111
(lp112
(lp113
(I0
g10
(g14
S'a\x8c\x84D\xf1\xda\xcd?'
p114
tp115
Rp116
tp117
a(I1
g10
(g14
S'<\xd2^h$R\xe5?'
p118
tp119
Rp120
tp121
a(I2
g10
(g14
S'\xc50\xf4\xd0\xa17\xb9?'
p122
tp123
Rp124
tp125
aasS'jamshedqutbshah.dat'
p126
(lp127
(lp128
(I1
g10
(g14
S'\xb8\xe5H\x072\xc1\xef?'
p129
tp130
Rp131
tp132
aasS'sultanquliqutbshah.dat'
p133
(lp134
(lp135
(I0
g10
(g14
S'\xf89oI\xb0\xb6\xa2?'
p136
tp137
Rp138
tp139
a(I1
g10
(g14
S'\xde\xc3\x19&\x01\xb8\xee?'
p140
tp141
Rp142
tp143
aasS'muhammadqutbshah.dat'
p144
(lp145
(lp146
(I1
g10
(g14
S'pD\x99\x1e\xb9\xbe\xef?'
p147
tp148
Rp149
tp150
aasS'CulturalInfluence.dat'
p151
(lp152
(lp153
(I1
g10
(g14
S'\xc7\x90q\xb4\xc2\xbe\xef?'
p154
tp155
Rp156
tp157
aasS'InternationalTrade_short.dat'
p158
(lp159
(lp160
(I1
g10
(g14
S'\xbe\x99\xb4\xcd\x88\x02\xef?'
p161
tp162
Rp163
tp164
aasS'DiamondTrade.dat'
p165
(lp166
(lp167
(I1
g10
(g14
S'\x8f\x1a\xa3B\x86\xcd\xef?'
p168
tp169
Rp170
tp171
aas.