ccollections
defaultdict
p0
(cdill.dill
_load_type
p1
(S'ListType'
p2
tp3
Rp4
tp5
Rp6
S'muhammadquliqutbshah.dat'
p7
(lp8
(lp9
(I0
cnumpy.core.multiarray
scalar
p10
(cnumpy
dtype
p11
(S'f8'
p12
I0
I1
tp13
Rp14
(I3
S'<'
p15
NNNI-1
I-1
I0
tp16
bS'\x8b6Qe\x8a\xa6\xd2?'
p17
tp18
Rp19
tp20
a(I1
g10
(g14
S'J\x9f\x8d\xdd\x15 \xcb?'
p21
tp22
Rp23
tp24
a(I4
g10
(g14
S'\xaf\xbc\x90\x10\xf3\x9e\xdf?'
p25
tp26
Rp27
tp28
aasS'abdullaqutbshah.dat'
p29
(lp30
(lp31
(I0
g10
(g14
S'|\x1e\xe7c\x85\xc2\xcb?'
p32
tp33
Rp34
tp35
a(I1
g10
(g14
S'T\xc0\xba`\xccR\xc2?'
p36
tp37
Rp38
tp39
a(I2
g10
(g14
S'\x1a\xf2\x8fH\xff\xba\xc0?'
p40
tp41
Rp42
tp43
a(I4
g10
(g14
S'\x9f\x90Q\xf3)C\xe0?'
p44
tp45
Rp46
tp47
aasS'DiamondTrade_short.dat'
p48
(lp49
(lp50
(I4
g10
(g14
S'9\xc2\xd9/!\x8d\xef?'
p51
tp52
Rp53
tp54
aasS'Military_short.dat'
p55
(lp56
(lp57
(I4
g10
(g14
S'\xf1\xb7\xa8\x00\xd7.\xef?'
p58
tp59
Rp60
tp61
aasS'InternationalTrade.dat'
p62
(lp63
(lp64
(I4
g10
(g14
S'\xe5r\x1b\tp\xfe\xee?'
p65
tp66
Rp67
tp68
aasS'CulturalInfluence_short.dat'
p69
(lp70
(lp71
(I4
g10
(g14
S'\xdd`\xf8a<a\xef?'
p72
tp73
Rp74
tp75
aasS'constructions_short.dat'
p76
(lp77
(lp78
(I0
g10
(g14
S'?\xc5\x8a},\xde\xbe?'
p79
tp80
Rp81
tp82
a(I4
g10
(g14
S'\x1b\x08A\xbf,\xdf\xeb?'
p83
tp84
Rp85
tp86
aasS'sultanibrahimqutbshah.dat'
p87
(lp88
(lp89
(I0
g10
(g14
S'\x03\x0f\x9b\x13\xc2\x8e\xd4?'
p90
tp91
Rp92
tp93
a(I1
g10
(g14
S'k\x18\xbe0{\x8d\xad?'
p94
tp95
Rp96
tp97
a(I4
g10
(g14
S'g\n\xb8$d\xcf\xe3?'
p98
tp99
Rp100
tp101
aasS'constructions.dat'
p102
(lp103
(lp104
(I0
g10
(g14
S'\xb4T\x96Bc\xdf\xa2?'
p105
tp106
Rp107
tp108
a(I1
g10
(g14
S'\xa8%\xc0q\xa0\xa9\xe0?'
p109
tp110
Rp111
tp112
a(I4
g10
(g14
S'\xfd\xaa1\x89\xbb\x19\xdc?'
p113
tp114
Rp115
tp116
aasS'Military.dat'
p117
(lp118
(lp119
(I1
g10
(g14
S'\x85\xe4\xc1Z,\x9e\xdb?'
p120
tp121
Rp122
tp123
a(I4
g10
(g14
S'`e\xdcpk\x07\xe2?'
p124
tp125
Rp126
tp127
aasS'subhanquliqutbshah.dat'
p128
(lp129
(lp130
(I1
g10
(g14
S'#\x98ru\xb8\xb3\xac?'
p131
tp132
Rp133
tp134
a(I4
g10
(g14
S'-Y,\x83\xd0\xeb\xed?'
p135
tp136
Rp137
tp138
aasS'abulhasan.dat'
p139
(lp140
(lp141
(I0
g10
(g14
S'\xaf"~Fd\xce\xc5?'
p142
tp143
Rp144
tp145
a(I1
g10
(g14
S"'\x0f\xa9\x86#\xde\xc4?"
p146
tp147
Rp148
tp149
a(I2
g10
(g14
S'\xb4.\x99~\xd0A\xc0?'
p150
tp151
Rp152
tp153
a(I4
g10
(g14
S'&6\xf6\xebM<\xe1?'
p154
tp155
Rp156
tp157
aasS'jamshedqutbshah.dat'
p158
(lp159
(lp160
(I0
g10
(g14
S'\xd0\xaf\xd5+qM\xd3?'
p161
tp162
Rp163
tp164
a(I1
g10
(g14
S'\xabl+\xaf\x06\xde\xc6?'
p165
tp166
Rp167
tp168
a(I4
g10
(g14
S'";\xcd\x1b\xf5\x81\xe0?'
p169
tp170
Rp171
tp172
aasS'sultanquliqutbshah.dat'
p173
(lp174
(lp175
(I0
g10
(g14
S'\x9d\x05\x7f\xb6MI\xa1?'
p176
tp177
Rp178
tp179
a(I1
g10
(g14
S'm\x98\x99\xd1\xcb\xc1\xdb?'
p180
tp181
Rp182
tp183
a(I4
g10
(g14
S'\x95\xc7\xa9\xbdZ\xf7\xe0?'
p184
tp185
Rp186
tp187
aasS'muhammadqutbshah.dat'
p188
(lp189
(lp190
(I0
g10
(g14
S'W5\xfd\x05\xd2_\xd0?'
p191
tp192
Rp193
tp194
a(I1
g10
(g14
S'\xde!\\\xa5\xb0\xb8\xa0?'
p195
tp196
Rp197
tp198
a(I4
g10
(g14
S'\xf0b\x1d\x02o\xa3\xe6?'
p199
tp200
Rp201
tp202
aasS'CulturalInfluence.dat'
p203
(lp204
(lp205
(I0
g10
(g14
S't\x01[\x1fE\x7f\xb4?'
p206
tp207
Rp208
tp209
a(I1
g10
(g14
S'z\xe06S\xac\xbc\xcf?'
p210
tp211
Rp212
tp213
a(I4
g10
(g14
S'\xa4CK\x81\xd3_\xe5?'
p214
tp215
Rp216
tp217
aasS'InternationalTrade_short.dat'
p218
(lp219
(lp220
(I4
g10
(g14
S'\xda\xb6\xae\xe2l\xfe\xee?'
p221
tp222
Rp223
tp224
aasS'DiamondTrade.dat'
p225
(lp226
(lp227
(I0
g10
(g14
S'\x05\xb4 ]\xaa\xb2\xe1?'
p228
tp229
Rp230
tp231
a(I1
g10
(g14
S'D\xc9\xe6\x99a\x03\xc0?'
p232
tp233
Rp234
tp235
a(I4
g10
(g14
S'\xc1:\xe8o\rf\xd4?'
p236
tp237
Rp238
tp239
aas.