ccollections
defaultdict
p0
(cdill.dill
_load_type
p1
(S'ListType'
p2
tp3
Rp4
tp5
Rp6
S'muhammadquliqutbshah.dat'
p7
(lp8
(lp9
(I1
cnumpy.core.multiarray
scalar
p10
(cnumpy
dtype
p11
(S'f8'
p12
I0
I1
tp13
Rp14
(I3
S'<'
p15
NNNI-1
I-1
I0
tp16
bS'\x9e\x02\xbd\xbd\x16/\xc5?'
p17
tp18
Rp19
tp20
a(I2
g10
(g14
S'A\x99\x12\x1b\\\x94\xea?'
p21
tp22
Rp23
tp24
aasS'abdullaqutbshah.dat'
p25
(lp26
(lp27
(I0
g10
(g14
S'\xb8\xbc1o\xa8\xe4\xd4?'
p28
tp29
Rp30
tp31
a(I1
g10
(g14
S'\xfc1\x95\xa1\xb5\xdc\xd5?'
p32
tp33
Rp34
tp35
a(I2
g10
(g14
S'o\xdc}n\xb6\x1b\xd5?'
p36
tp37
Rp38
tp39
aasS'DiamondTrade_short.dat'
p40
(lp41
(lp42
(I0
g10
(g14
S'#\x0e\xda\x07{\xa5\xe3?'
p43
tp44
Rp45
tp46
a(I2
g10
(g14
S'\xc4\xae$\x8b\xa0\t\xd8?'
p47
tp48
Rp49
tp50
aasS'Military_short.dat'
p51
(lp52
(lp53
(I0
g10
(g14
S'\xee\xfb\xb6M\x11\xd4\xcf?'
p54
tp55
Rp56
tp57
a(I2
g10
(g14
S'\xd9S\xf0\xea\x11o\xe7?'
p58
tp59
Rp60
tp61
aasS'InternationalTrade.dat'
p62
(lp63
(lp64
(I0
g10
(g14
S'\xa1w7\x98\x80\x9a\xe0?'
p65
tp66
Rp67
tp68
a(I2
g10
(g14
S'\xfe\x88\xa7\xc2)K\xdd?'
p69
tp70
Rp71
tp72
aasS'CulturalInfluence_short.dat'
p73
(lp74
(lp75
(I0
g10
(g14
S'\x82\xa3\xc1\xd4x\x94\xe6?'
p76
tp77
Rp78
tp79
a(I2
g10
(g14
S'\xeau\xffn\xe1\xe8\xd1?'
p80
tp81
Rp82
tp83
aasS'constructions_short.dat'
p84
(lp85
(lp86
(I0
g10
(g14
S')\xf7W\xc0\xa8\xdb\xc9?'
p87
tp88
Rp89
tp90
a(I2
g10
(g14
S'\x0exs\xdd\xbcD\xe9?'
p91
tp92
Rp93
tp94
aasS'sultanibrahimqutbshah.dat'
p95
(lp96
(lp97
(I0
g10
(g14
S'\x90\xbb\x8ds\x8a\xef\xce?'
p98
tp99
Rp100
tp101
a(I1
g10
(g14
S'\xe7KhF\x98\x9d\xd2?'
p102
tp103
Rp104
tp105
a(I2
g10
(g14
S'\x1a\xe9\xca\x02_\xca\xdd?'
p106
tp107
Rp108
tp109
aasS'constructions.dat'
p110
(lp111
(lp112
(I1
g10
(g14
S'\x80)\xca\x16L\xa9\xca?'
p113
tp114
Rp115
tp116
a(I2
g10
(g14
S'\x7f[?\x95U,\xe9?'
p117
tp118
Rp119
tp120
aasS'Military.dat'
p121
(lp122
(lp123
(I0
g10
(g14
S'\xf3-v\xc8R\xb6\xbb?'
p124
tp125
Rp126
tp127
a(I1
g10
(g14
S'7\x12\xa0\x822\xa5\xbe?'
p128
tp129
Rp130
tp131
a(I2
g10
(g14
S'\x7f6\x1b,\x08\x99\xe8?'
p132
tp133
Rp134
tp135
aasS'subhanquliqutbshah.dat'
p136
(lp137
(lp138
(I0
g10
(g14
S'\xd6\x9c\xd9;u\x15\xdc?'
p139
tp140
Rp141
tp142
a(I2
g10
(g14
S'\xb8\xbc\xba\xf4\x17\xad\xe1?'
p143
tp144
Rp145
tp146
aasS'abulhasan.dat'
p147
(lp148
(lp149
(I0
g10
(g14
S'\xfa%m\x0e\xf4U\xd9?'
p150
tp151
Rp152
tp153
a(I1
g10
(g14
S'+ \x82m\xee\x07\xd5?'
p154
tp155
Rp156
tp157
a(I2
g10
(g14
S'\x8e\xf7\xe1b\x9e\x81\xd1?'
p158
tp159
Rp160
tp161
aasS'jamshedqutbshah.dat'
p162
(lp163
(lp164
(I0
g10
(g14
S'H\x1dc\xf3)>\xc5?'
p165
tp166
Rp167
tp168
a(I1
g10
(g14
S'\x16\xdas`+1\xb4?'
p169
tp170
Rp171
tp172
a(I2
g10
(g14
S'"\xc7\x10\xed\xbc\n\xe8?'
p173
tp174
Rp175
tp176
aasS'sultanquliqutbshah.dat'
p177
(lp178
(lp179
(I1
g10
(g14
S'\x99\xd3\xd2\xdd\n\xf7\xb3?'
p180
tp181
Rp182
tp183
a(I2
g10
(g14
S'\x0cZU\xc7id\xed?'
p184
tp185
Rp186
tp187
aasS'muhammadqutbshah.dat'
p188
(lp189
(lp190
(I0
g10
(g14
S'l\x85\xc9\xb5D;\xd1?'
p191
tp192
Rp193
tp194
a(I2
g10
(g14
S'0\xb2%\xfe\xe50\xe7?'
p195
tp196
Rp197
tp198
aasS'CulturalInfluence.dat'
p199
(lp200
(lp201
(I2
g10
(g14
S'\xacj\x12\xf3\xd0\xbd\xef?'
p202
tp203
Rp204
tp205
aasS'InternationalTrade_short.dat'
p206
(lp207
(lp208
(I0
g10
(g14
S'n\xe4L\x07\xcd%\xe0?'
p209
tp210
Rp211
tp212
a(I2
g10
(g14
S'v\x03E\x08\x954\xde?'
p213
tp214
Rp215
tp216
aasS'DiamondTrade.dat'
p217
(lp218
(lp219
(I0
g10
(g14
S'\xb9#\xe0\x06\x81N\x97?'
p220
tp221
Rp222
tp223
a(I1
g10
(g14
S'\x97@\xe2\x17\x81\xc4\xd9?'
p224
tp225
Rp226
tp227
a(I2
g10
(g14
S')M\xe9\xd1\xf5I\xe2?'
p228
tp229
Rp230
tp231
aas.