(lp0
(lp1
S'NoDetect'
p2
aF44.3
aa(lp3
S'kilwat'
p4
aF7.633333333333333
aa(lp5
g2
aF292.3
aa(lp6
S'bhagmatipalace'
p7
aF1.1666666666666667
aa(lp8
g2
aF27.9
aa(lp9
S'bhagmatipalace'
p10
aF2.2333333333333334
aa(lp11
g2
aF112.16666666666667
aa(lp12
S'taramatimosque'
p13
aF3.3
aa(lp14
g2
aF10.266666666666666
aa(lp15
S'taramatimosque'
p16
aF0.5
aa(lp17
g2
aF2.5666666666666664
aa(lp18
S'taramatimosque'
p19
aF10.066666666666666
aa(lp20
g2
aF3.1
aa(lp21
S'taramatimosque'
p22
aF2.2666666666666666
aa(lp23
g2
aF0.7333333333333333
aa(lp24
S'taramatimosque'
p25
aF1.3
aa(lp26
g2
aF4.266666666666667
aa(lp27
S'taramatimosque'
p28
aF1.8333333333333333
aa(lp29
g2
aF3.0
aa(lp30
S'taramatimosque'
p31
aF5.966666666666667
aa(lp32
g2
aF1.4666666666666666
aa(lp33
S'taramatimosque'
p34
aF0.8333333333333334
aa(lp35
g2
aF1.4333333333333333
aa(lp36
S'taramatimosque'
p37
aF1.5333333333333332
aa(lp38
g2
aF0.9666666666666667
aa(lp39
S'taramatimosque'
p40
aF6.966666666666667
aa(lp41
g2
aF2.8
aa(lp42
S'taramatimosque'
p43
aF17.733333333333334
aa(lp44
g2
aF2.8666666666666667
aa(lp45
S'taramatimosque'
p46
aF14.266666666666666
aa(lp47
g2
aF4.866666666666666
aa(lp48
S'taramatimosque'
p49
aF1.0666666666666667
aa(lp50
g2
aF2.7333333333333334
aa(lp51
S'taramatimosque'
p52
aF5.6
aa(lp53
g2
aF0.8
aa(lp54
S'taramatimosque'
p55
aF0.5333333333333333
aa(lp56
g2
aF106.43333333333334
aa(lp57
S'nakkarkhana'
p58
aF1.2666666666666666
aa(lp59
g2
aF4.433333333333334
aa(lp60
S'mortuarybath'
p61
aF0.6
aa(lp62
g2
aF4.433333333333334
aa(lp63
S'mortuarybath'
p64
aF4.733333333333333
aa(lp65
g2
aF62.733333333333334
aa(lp66
S'aslahkhana'
p67
aF16.8
aa(lp68
g2
aF0.7
aa(lp69
S'aslahkhana'
p70
aF34.6
aa(lp71
g2
aF2.2333333333333334
aa(lp72
S'aslahkhana'
p73
aF6.466666666666667
aa(lp74
g2
aF1.1333333333333333
aa(lp75
S'aslahkhana'
p76
aF7.733333333333333
aa(lp77
g2
aF32.166666666666664
aa.