(lp0
(lp1
S'NoDetect'
p2
aF55.375
aa(lp3
S'kilwat'
p4
aF9.541666666666666
aa(lp5
g2
aF365.375
aa(lp6
S'bhagmatipalace'
p7
aF1.4583333333333333
aa(lp8
g2
aF34.875
aa(lp9
S'bhagmatipalace'
p10
aF2.7916666666666665
aa(lp11
g2
aF140.20833333333331
aa(lp12
S'taramatimosque'
p13
aF4.125
aa(lp14
g2
aF12.833333333333332
aa(lp15
S'taramatimosque'
p16
aF0.625
aa(lp17
g2
aF3.208333333333333
aa(lp18
S'taramatimosque'
p19
aF12.583333333333332
aa(lp20
g2
aF3.875
aa(lp21
S'taramatimosque'
p22
aF2.833333333333333
aa(lp23
g2
aF0.9166666666666666
aa(lp24
S'taramatimosque'
p25
aF1.625
aa(lp26
g2
aF5.333333333333333
aa(lp27
S'taramatimosque'
p28
aF2.2916666666666665
aa(lp29
g2
aF3.75
aa(lp30
S'taramatimosque'
p31
aF7.458333333333333
aa(lp32
g2
aF1.8333333333333333
aa(lp33
S'taramatimosque'
p34
aF1.0416666666666665
aa(lp35
g2
aF1.7916666666666665
aa(lp36
S'taramatimosque'
p37
aF1.9166666666666665
aa(lp38
g2
aF1.2083333333333333
aa(lp39
S'taramatimosque'
p40
aF8.708333333333332
aa(lp41
g2
aF3.5
aa(lp42
S'taramatimosque'
p43
aF22.166666666666664
aa(lp44
g2
aF3.583333333333333
aa(lp45
S'taramatimosque'
p46
aF17.833333333333332
aa(lp47
g2
aF6.083333333333333
aa(lp48
S'taramatimosque'
p49
aF1.3333333333333333
aa(lp50
g2
aF3.4166666666666665
aa(lp51
S'taramatimosque'
p52
aF7.0
aa(lp53
g2
aF1.0
aa(lp54
S'taramatimosque'
p55
aF0.6666666666666666
aa(lp56
g2
aF133.04166666666666
aa(lp57
S'nakkarkhana'
p58
aF1.5833333333333333
aa(lp59
g2
aF5.541666666666666
aa(lp60
S'mortuarybath'
p61
aF0.75
aa(lp62
g2
aF5.541666666666666
aa(lp63
S'mortuarybath'
p64
aF5.916666666666666
aa(lp65
g2
aF78.41666666666666
aa(lp66
S'aslahkhana'
p67
aF21.0
aa(lp68
g2
aF0.875
aa(lp69
S'aslahkhana'
p70
aF43.25
aa(lp71
g2
aF2.7916666666666665
aa(lp72
S'aslahkhana'
p73
aF8.083333333333332
aa(lp74
g2
aF1.4166666666666665
aa(lp75
S'aslahkhana'
p76
aF9.666666666666666
aa(lp77
g2
aF40.20833333333333
aa.